target datalayout = "e-m:e-p270:32:32-p271:32:32-p272:64:64-i64:64-i128:128-f80:128-n8:16:32:64-S128"
target triple = "x86_64-pc-linux-gnu"

%struct.mbedtls_cipher_context_t = type { ptr, i32, i32, ptr, ptr, [16 x i8], i64, [16 x i8], i64, ptr, ptr }
%struct.psa_aead_operation_s = type { i32, i32, i16, i64, i64, i8, %union.psa_driver_aead_context_t }
%union.psa_driver_aead_context_t = type { %struct.mbedtls_psa_aead_operation_t }
%struct.mbedtls_psa_aead_operation_t = type { i32, i16, i8, i8, %union.anon.1 }
%union.anon.1 = type { %struct.mbedtls_gcm_context }
%struct.mbedtls_gcm_context = type { %struct.mbedtls_cipher_context_t, [16 x i64], [16 x i64], i64, i64, [16 x i8], [16 x i8], [16 x i8], i32 }

; Function Attrs: nounwind uwtable
define hidden i32 @psa_driver_wrapper_aead_update_ad(ptr noundef %0, ptr noundef %1, i64 noundef %2) #0 {
  %4 = alloca i32, align 4
  %5 = alloca ptr, align 8
  %6 = alloca ptr, align 8
  %7 = alloca i64, align 8
  store ptr %0, ptr %5, align 8
  store ptr %1, ptr %6, align 8
  store i64 %2, ptr %7, align 8
  %8 = load ptr, ptr %5, align 8
  %9 = getelementptr inbounds %struct.psa_aead_operation_s, ptr %8, i32 0, i32 0
  %10 = load i32, ptr %9, align 8
  switch i32 %10, label %17 [
    i32 1, label %11
  ]

11:                                               ; preds = %3
  %12 = load ptr, ptr %5, align 8
  %13 = getelementptr inbounds %struct.psa_aead_operation_s, ptr %12, i32 0, i32 6
  %14 = load ptr, ptr %6, align 8
  %15 = load i64, ptr %7, align 8
  %16 = call i32 @mbedtls_psa_aead_update_ad(ptr noundef %13, ptr noundef %14, i64 noundef %15)
  store i32 %16, ptr %4, align 4
  br label %18

17:                                               ; preds = %3
  store i32 -135, ptr %4, align 4
  br label %18

18:                                               ; preds = %17, %11
  %19 = load i32, ptr %4, align 4
  ret i32 %19
}